target datalayout = "e-m:e-p270:32:32-p271:32:32-p272:64:64-i64:64-i128:128-f80:128-n8:16:32:64-S128"
target triple = "x86_64-pc-linux-gnu"

%struct.PyMutex = type { i8 }
%struct._queues = type { ptr, ptr, i64, i64 }
%struct.globals = type { %struct.PyMutex, i32, %struct._queues }
%struct._queue = type { i64, ptr, i32, %struct._queueitems, %struct.anon.0 }
%struct._queueitems = type { i64, i64, ptr, ptr }
%struct.anon.0 = type { i32, i32 }
%struct._queueref = type { ptr, i64, i64, ptr }
%struct._queueitem = type { i64, ptr, i32, i32, ptr }

@_globals = internal global { %struct.PyMutex, [3 x i8], i32, %struct._queues } zeroinitializer, align 8
@__func__._queueitem_clear_interpreter = private unnamed_addr constant [29 x i8] c"_queueitem_clear_interpreter\00", align 1
@.str.61 = private unnamed_addr constant [14 x i8] c"not reachable\00", align 1

; Function Attrs: nounwind uwtable
define internal i32 @_release_xid_data(ptr noundef %0, i32 noundef %1) #0 {
  %3 = alloca ptr, align 8
  %4 = alloca i32, align 4
  %5 = alloca i32, align 4
  %6 = alloca ptr, align 8
  %7 = alloca i32, align 4
  store ptr %0, ptr %3, align 8, !tbaa !66
  store i32 %1, ptr %4, align 4, !tbaa !9
  call void @llvm.lifetime.start.p0(i64 4, ptr %5) #8
  %8 = load i32, ptr %4, align 4, !tbaa !9
  %9 = and i32 %8, 1
  store i32 %9, ptr %5, align 4, !tbaa !9
  call void @llvm.lifetime.start.p0(i64 8, ptr %6) #8
  %10 = load i32, ptr %5, align 4, !tbaa !9
  %11 = icmp ne i32 %10, 0
  br i1 %11, label %12, label %14

12:                                               ; preds = %2
  %13 = call ptr @PyErr_GetRaisedException()
  store ptr %13, ptr %6, align 8, !tbaa !3
  br label %14

14:                                               ; preds = %12, %2
  call void @llvm.lifetime.start.p0(i64 4, ptr %7) #8
  %15 = load i32, ptr %4, align 4, !tbaa !9
  %16 = and i32 %15, 2
  %17 = icmp ne i32 %16, 0
  br i1 %17, label %18, label %21

18:                                               ; preds = %14
  %19 = load ptr, ptr %3, align 8, !tbaa !66
  %20 = call i32 @_PyXIData_ReleaseAndRawFree(ptr noundef %19)
  store i32 %20, ptr %7, align 4, !tbaa !9
  br label %24

21:                                               ; preds = %14
  %22 = load ptr, ptr %3, align 8, !tbaa !66
  %23 = call i32 @_PyXIData_Release(ptr noundef %22)
  store i32 %23, ptr %7, align 4, !tbaa !9
  br label %24

24:                                               ; preds = %21, %18
  %25 = load i32, ptr %7, align 4, !tbaa !9
  %26 = icmp slt i32 %25, 0
  br i1 %26, label %27, label %32

27:                                               ; preds = %24
  %28 = load i32, ptr %5, align 4, !tbaa !9
  %29 = icmp ne i32 %28, 0
  br i1 %29, label %30, label %31

30:                                               ; preds = %27
  call void @PyErr_Clear()
  br label %31

31:                                               ; preds = %30, %27
  br label %32

32:                                               ; preds = %31, %24
  %33 = load i32, ptr %4, align 4, !tbaa !9
  %34 = and i32 %33, 2
  %35 = icmp ne i32 %34, 0
  br i1 %35, label %36, label %37

36:                                               ; preds = %32
  br label %37

37:                                               ; preds = %36, %32
  %38 = load i32, ptr %5, align 4, !tbaa !9
  %39 = icmp ne i32 %38, 0
  br i1 %39, label %40, label %42

40:                                               ; preds = %37
  %41 = load ptr, ptr %6, align 8, !tbaa !3
  call void @PyErr_SetRaisedException(ptr noundef %41)
  br label %42

42:                                               ; preds = %40, %37
  %43 = load i32, ptr %7, align 4, !tbaa !9
  call void @llvm.lifetime.end.p0(i64 4, ptr %7) #8
  call void @llvm.lifetime.end.p0(i64 8, ptr %6) #8
  call void @llvm.lifetime.end.p0(i64 4, ptr %5) #8
  ret i32 %43
}

; Function Attrs: nounwind uwtable
define internal void @_queueitem_clear(ptr noundef %0) #0 {
  %2 = alloca ptr, align 8
  store ptr %0, ptr %2, align 8, !tbaa !48
  %3 = load ptr, ptr %2, align 8, !tbaa !48
  %4 = getelementptr inbounds nuw %struct._queueitem, ptr %3, i32 0, i32 4
  store ptr null, ptr %4, align 8, !tbaa !61
  %5 = load ptr, ptr %2, align 8, !tbaa !48
  call void @_queueitem_clear_data(ptr noundef %5)
  ret void
}

; Function Attrs: nounwind uwtable
define internal void @_queueitem_clear_data(ptr noundef %0) #0 {
  %2 = alloca ptr, align 8
  store ptr %0, ptr %2, align 8, !tbaa !48
  %3 = load ptr, ptr %2, align 8, !tbaa !48
  %4 = getelementptr inbounds nuw %struct._queueitem, ptr %3, i32 0, i32 1
  %5 = load ptr, ptr %4, align 8, !tbaa !65
  %6 = icmp eq ptr %5, null
  br i1 %6, label %7, label %8

7:                                                ; preds = %1
  br label %15

8:                                                ; preds = %1
  %9 = load ptr, ptr %2, align 8, !tbaa !48
  %10 = getelementptr inbounds nuw %struct._queueitem, ptr %9, i32 0, i32 1
  %11 = load ptr, ptr %10, align 8, !tbaa !65
  %12 = call i32 @_release_xid_data(ptr noundef %11, i32 noundef 0)
  %13 = load ptr, ptr %2, align 8, !tbaa !48
  %14 = getelementptr inbounds nuw %struct._queueitem, ptr %13, i32 0, i32 1
  store ptr null, ptr %14, align 8, !tbaa !65
  br label %15

15:                                               ; preds = %8, %7
  ret void
}

; Function Attrs: nounwind uwtable
define internal void @_queue_unlock(ptr noundef %0) #0 {
  %2 = alloca ptr, align 8
  store ptr %0, ptr %2, align 8, !tbaa !26
  %3 = load ptr, ptr %2, align 8, !tbaa !26
  %4 = getelementptr inbounds nuw %struct._queue, ptr %3, i32 0, i32 1
  %5 = load ptr, ptr %4, align 8, !tbaa !42
  call void @PyThread_release_lock(ptr noundef %5)
  ret void
}

; Function Attrs: nounwind uwtable
define internal void @_queueitem_free(ptr noundef %0) #0 {
  %2 = alloca ptr, align 8
  store ptr %0, ptr %2, align 8, !tbaa !48
  %3 = load ptr, ptr %2, align 8, !tbaa !48
  call void @_queueitem_clear(ptr noundef %3)
  %4 = load ptr, ptr %2, align 8, !tbaa !48
  call void @PyMem_RawFree(ptr noundef %4)
  ret void
}

; Function Attrs: nounwind uwtable
define internal i32 @_queueitem_clear_interpreter(ptr noundef %0) #0 {
  %2 = alloca i32, align 4
  %3 = alloca ptr, align 8
  store ptr %0, ptr %3, align 8, !tbaa !48
  %4 = load ptr, ptr %3, align 8, !tbaa !48
  %5 = getelementptr inbounds nuw %struct._queueitem, ptr %4, i32 0, i32 1
  %6 = load ptr, ptr %5, align 8, !tbaa !65
  %7 = icmp eq ptr %6, null
  br i1 %7, label %8, label %9

8:                                                ; preds = %1
  store i32 0, ptr %2, align 4
  br label %17

9:                                                ; preds = %1
  %10 = load ptr, ptr %3, align 8, !tbaa !48
  %11 = getelementptr inbounds nuw %struct._queueitem, ptr %10, i32 0, i32 3
  %12 = load i32, ptr %11, align 4, !tbaa !105
  switch i32 %12, label %16 [
    i32 1, label %13
    i32 2, label %14
    i32 3, label %14
  ]

13:                                               ; preds = %9
  store i32 1, ptr %2, align 4
  br label %17

14:                                               ; preds = %9, %9
  %15 = load ptr, ptr %3, align 8, !tbaa !48
  call void @_queueitem_clear_data(ptr noundef %15)
  store i32 0, ptr %2, align 4
  br label %17

16:                                               ; preds = %9
  call void @_Py_FatalErrorFunc(ptr noundef @__func__._queueitem_clear_interpreter, ptr noundef @.str.61) #9
  unreachable

17:                                               ; preds = %14, %13, %8
  %18 = load i32, ptr %2, align 4
  ret i32 %18
}

; Function Attrs: nounwind uwtable
define internal i32 @_queue_lock(ptr noundef %0) #0 {
  %2 = alloca i32, align 4
  %3 = alloca ptr, align 8
  store ptr %0, ptr %3, align 8, !tbaa !26
  %4 = load ptr, ptr %3, align 8, !tbaa !26
  %5 = getelementptr inbounds nuw %struct._queue, ptr %4, i32 0, i32 1
  %6 = load ptr, ptr %5, align 8, !tbaa !42
  %7 = call i32 @PyThread_acquire_lock(ptr noundef %6, i32 noundef 1)
  %8 = load ptr, ptr %3, align 8, !tbaa !26
  %9 = getelementptr inbounds nuw %struct._queue, ptr %8, i32 0, i32 2
  %10 = load i32, ptr %9, align 8, !tbaa !43
  %11 = icmp ne i32 %10, 0
  br i1 %11, label %16, label %12

12:                                               ; preds = %1
  %13 = load ptr, ptr %3, align 8, !tbaa !26
  %14 = getelementptr inbounds nuw %struct._queue, ptr %13, i32 0, i32 1
  %15 = load ptr, ptr %14, align 8, !tbaa !42
  call void @PyThread_release_lock(ptr noundef %15)
  store i32 -14, ptr %2, align 4
  br label %17

16:                                               ; preds = %1
  store i32 0, ptr %2, align 4
  br label %17

17:                                               ; preds = %16, %12
  %18 = load i32, ptr %2, align 4
  ret i32 %18
}

; Function Attrs: nounwind uwtable
define internal void @_queue_clear_interpreter(ptr noundef %0, i64 noundef %1) #0 {
  %3 = alloca ptr, align 8
  %4 = alloca i64, align 8
  %5 = alloca i32, align 4
  %6 = alloca i32, align 4
  %7 = alloca ptr, align 8
  %8 = alloca ptr, align 8
  %9 = alloca ptr, align 8
  %10 = alloca i32, align 4
  store ptr %0, ptr %3, align 8, !tbaa !26
  store i64 %1, ptr %4, align 8, !tbaa !11
  call void @llvm.lifetime.start.p0(i64 4, ptr %5) #8
  %11 = load ptr, ptr %3, align 8, !tbaa !26
  %12 = call i32 @_queue_lock(ptr noundef %11)
  store i32 %12, ptr %5, align 4, !tbaa !9
  %13 = load i32, ptr %5, align 4, !tbaa !9
  %14 = icmp eq i32 %13, -14
  br i1 %14, label %15, label %16

15:                                               ; preds = %2
  store i32 1, ptr %6, align 4
  br label %66

16:                                               ; preds = %2
  call void @llvm.lifetime.start.p0(i64 8, ptr %7) #8
  store ptr null, ptr %7, align 8, !tbaa !48
  call void @llvm.lifetime.start.p0(i64 8, ptr %8) #8
  %17 = load ptr, ptr %3, align 8, !tbaa !26
  %18 = getelementptr inbounds nuw %struct._queue, ptr %17, i32 0, i32 3
  %19 = getelementptr inbounds nuw %struct._queueitems, ptr %18, i32 0, i32 2
  %20 = load ptr, ptr %19, align 8, !tbaa !59
  store ptr %20, ptr %8, align 8, !tbaa !48
  br label %21

21:                                               ; preds = %63, %16
  %22 = load ptr, ptr %8, align 8, !tbaa !48
  %23 = icmp ne ptr %22, null
  br i1 %23, label %24, label %64

24:                                               ; preds = %21
  call void @llvm.lifetime.start.p0(i64 8, ptr %9) #8
  %25 = load ptr, ptr %8, align 8, !tbaa !48
  store ptr %25, ptr %9, align 8, !tbaa !48
  %26 = load ptr, ptr %9, align 8, !tbaa !48
  %27 = getelementptr inbounds nuw %struct._queueitem, ptr %26, i32 0, i32 4
  %28 = load ptr, ptr %27, align 8, !tbaa !61
  store ptr %28, ptr %8, align 8, !tbaa !48
  call void @llvm.lifetime.start.p0(i64 4, ptr %10) #8
  %29 = load ptr, ptr %9, align 8, !tbaa !48
  %30 = getelementptr inbounds nuw %struct._queueitem, ptr %29, i32 0, i32 0
  %31 = load i64, ptr %30, align 8, !tbaa !103
  %32 = load i64, ptr %4, align 8, !tbaa !11
  %33 = icmp eq i64 %31, %32
  br i1 %33, label %34, label %37

34:                                               ; preds = %24
  %35 = load ptr, ptr %9, align 8, !tbaa !48
  %36 = call i32 @_queueitem_clear_interpreter(ptr noundef %35)
  br label %38

37:                                               ; preds = %24
  br label %38

38:                                               ; preds = %37, %34
  %39 = phi i32 [ %36, %34 ], [ 0, %37 ]
  store i32 %39, ptr %10, align 4, !tbaa !9
  %40 = load i32, ptr %10, align 4, !tbaa !9
  %41 = icmp ne i32 %40, 0
  br i1 %41, label %42, label %61

42:                                               ; preds = %38
  %43 = load ptr, ptr %9, align 8, !tbaa !48
  call void @_queueitem_free(ptr noundef %43)
  %44 = load ptr, ptr %7, align 8, !tbaa !48
  %45 = icmp eq ptr %44, null
  br i1 %45, label %46, label %51

46:                                               ; preds = %42
  %47 = load ptr, ptr %8, align 8, !tbaa !48
  %48 = load ptr, ptr %3, align 8, !tbaa !26
  %49 = getelementptr inbounds nuw %struct._queue, ptr %48, i32 0, i32 3
  %50 = getelementptr inbounds nuw %struct._queueitems, ptr %49, i32 0, i32 2
  store ptr %47, ptr %50, align 8, !tbaa !59
  br label %55

51:                                               ; preds = %42
  %52 = load ptr, ptr %8, align 8, !tbaa !48
  %53 = load ptr, ptr %7, align 8, !tbaa !48
  %54 = getelementptr inbounds nuw %struct._queueitem, ptr %53, i32 0, i32 4
  store ptr %52, ptr %54, align 8, !tbaa !61
  br label %55

55:                                               ; preds = %51, %46
  %56 = load ptr, ptr %3, align 8, !tbaa !26
  %57 = getelementptr inbounds nuw %struct._queue, ptr %56, i32 0, i32 3
  %58 = getelementptr inbounds nuw %struct._queueitems, ptr %57, i32 0, i32 1
  %59 = load i64, ptr %58, align 8, !tbaa !101
  %60 = sub i64 %59, 1
  store i64 %60, ptr %58, align 8, !tbaa !101
  br label %63

61:                                               ; preds = %38
  %62 = load ptr, ptr %9, align 8, !tbaa !48
  store ptr %62, ptr %7, align 8, !tbaa !48
  br label %63

63:                                               ; preds = %61, %55
  call void @llvm.lifetime.end.p0(i64 4, ptr %10) #8
  call void @llvm.lifetime.end.p0(i64 8, ptr %9) #8
  br label %21, !llvm.loop !142

64:                                               ; preds = %21
  %65 = load ptr, ptr %3, align 8, !tbaa !26
  call void @_queue_unlock(ptr noundef %65)
  call void @llvm.lifetime.end.p0(i64 8, ptr %8) #8
  call void @llvm.lifetime.end.p0(i64 8, ptr %7) #8
  store i32 0, ptr %6, align 4
  br label %66

66:                                               ; preds = %64, %15
  call void @llvm.lifetime.end.p0(i64 4, ptr %5) #8
  %67 = load i32, ptr %6, align 4
  switch i32 %67, label %69 [
    i32 0, label %68
    i32 1, label %68
  ]

68:                                               ; preds = %66, %66
  ret void

69:                                               ; preds = %66
  unreachable
}

; Function Attrs: nounwind uwtable
define internal void @_queues_clear_interpreter(ptr noundef %0, i64 noundef %1) #0 {
  %3 = alloca ptr, align 8
  %4 = alloca i64, align 8
  %5 = alloca ptr, align 8
  store ptr %0, ptr %3, align 8, !tbaa !39
  store i64 %1, ptr %4, align 8, !tbaa !11
  %6 = load ptr, ptr %3, align 8, !tbaa !39
  %7 = getelementptr inbounds nuw %struct._queues, ptr %6, i32 0, i32 0
  %8 = load ptr, ptr %7, align 8, !tbaa !49
  %9 = call i32 @PyThread_acquire_lock(ptr noundef %8, i32 noundef 1)
  call void @llvm.lifetime.start.p0(i64 8, ptr %5) #8
  %10 = load ptr, ptr %3, align 8, !tbaa !39
  %11 = getelementptr inbounds nuw %struct._queues, ptr %10, i32 0, i32 1
  %12 = load ptr, ptr %11, align 8, !tbaa !57
  store ptr %12, ptr %5, align 8, !tbaa !50
  br label %13

13:                                               ; preds = %21, %2
  %14 = load ptr, ptr %5, align 8, !tbaa !50
  %15 = icmp ne ptr %14, null
  br i1 %15, label %16, label %25

16:                                               ; preds = %13
  %17 = load ptr, ptr %5, align 8, !tbaa !50
  %18 = getelementptr inbounds nuw %struct._queueref, ptr %17, i32 0, i32 3
  %19 = load ptr, ptr %18, align 8, !tbaa !55
  %20 = load i64, ptr %4, align 8, !tbaa !11
  call void @_queue_clear_interpreter(ptr noundef %19, i64 noundef %20)
  br label %21

21:                                               ; preds = %16
  %22 = load ptr, ptr %5, align 8, !tbaa !50
  %23 = getelementptr inbounds nuw %struct._queueref, ptr %22, i32 0, i32 0
  %24 = load ptr, ptr %23, align 8, !tbaa !51
  store ptr %24, ptr %5, align 8, !tbaa !50
  br label %13, !llvm.loop !141

25:                                               ; preds = %13
  %26 = load ptr, ptr %3, align 8, !tbaa !39
  %27 = getelementptr inbounds nuw %struct._queues, ptr %26, i32 0, i32 0
  %28 = load ptr, ptr %27, align 8, !tbaa !49
  call void @PyThread_release_lock(ptr noundef %28)
  call void @llvm.lifetime.end.p0(i64 8, ptr %5) #8
  ret void
}

; Function Attrs: nounwind uwtable
define internal void @clear_interpreter(ptr noundef %0) #0 {
  %2 = alloca ptr, align 8
  %3 = alloca ptr, align 8
  %4 = alloca i64, align 8
  store ptr %0, ptr %2, align 8, !tbaa !8
  %5 = load i32, ptr getelementptr inbounds nuw (%struct.globals, ptr @_globals, i32 0, i32 1), align 4, !tbaa !133
  %6 = icmp eq i32 %5, 0
  br i1 %6, label %7, label %8

7:                                                ; preds = %1
  br label %13

8:                                                ; preds = %1
  call void @llvm.lifetime.start.p0(i64 8, ptr %3) #8
  %9 = load ptr, ptr %2, align 8, !tbaa !8
  store ptr %9, ptr %3, align 8, !tbaa !98
  call void @llvm.lifetime.start.p0(i64 8, ptr %4) #8
  %10 = load ptr, ptr %3, align 8, !tbaa !98
  %11 = call i64 @PyInterpreterState_GetID(ptr noundef %10)
  store i64 %11, ptr %4, align 8, !tbaa !11
  %12 = load i64, ptr %4, align 8, !tbaa !11
  call void @_queues_clear_interpreter(ptr noundef getelementptr inbounds nuw (%struct.globals, ptr @_globals, i32 0, i32 2), i64 noundef %12)
  call void @llvm.lifetime.end.p0(i64 8, ptr %4) #8
  call void @llvm.lifetime.end.p0(i64 8, ptr %3) #8
  br label %13

13:                                               ; preds = %8, %7
  ret void
}