; Function Attrs: nounwind uwtable
define internal void @clear_interpreter(ptr noundef %0) #0 {
  %2 = load i32, ptr getelementptr inbounds nuw (i8, ptr @_globals, i64 4), align 4, !tbaa !102
  %3 = icmp eq i32 %2, 0
  br i1 %3, label %42, label %4

4:                                                ; preds = %1
  %5 = tail call i64 @PyInterpreterState_GetID(ptr noundef %0) #6
  %6 = load ptr, ptr getelementptr inbounds nuw (i8, ptr @_globals, i64 8), align 8, !tbaa !20
  %7 = tail call i32 @PyThread_acquire_lock(ptr noundef %6, i32 noundef 1) #6
  %.01.i = load ptr, ptr getelementptr inbounds nuw (i8, ptr @_globals, i64 16), align 8, !tbaa !36
  %.not2.i = icmp eq ptr %.01.i, null
  br i1 %.not2.i, label %_queues_clear_interpreter.exit, label %.lr.ph.i

.lr.ph.i:                                         ; preds = %4, %_queue_clear_interpreter.exit.i
  %.03.i = phi ptr [ %.0.i, %_queue_clear_interpreter.exit.i ], [ %.01.i, %4 ]
  %8 = getelementptr inbounds nuw i8, ptr %.03.i, i64 24
  %9 = load ptr, ptr %8, align 8, !tbaa !49
  %10 = getelementptr inbounds nuw i8, ptr %9, i64 8
  %11 = load ptr, ptr %10, align 8, !tbaa !35
  %12 = tail call i32 @PyThread_acquire_lock(ptr noundef %11, i32 noundef 1) #6
  %13 = getelementptr inbounds nuw i8, ptr %9, i64 16
  %14 = load i32, ptr %13, align 8, !tbaa !64
  %.not.i.i.i = icmp eq i32 %14, 0
  br i1 %.not.i.i.i, label %_queue_clear_interpreter.exit.i, label %_queue_lock.exit.i.i

_queue_lock.exit.i.i:                             ; preds = %.lr.ph.i
  %15 = getelementptr inbounds nuw i8, ptr %9, i64 40
  %16 = load ptr, ptr %15, align 8, !tbaa !24
  %.not23.i.i = icmp eq ptr %16, null
  br i1 %.not23.i.i, label %_queue_clear_interpreter.exit.i, label %.lr.ph.i.i

.lr.ph.i.i:                                       ; preds = %_queue_lock.exit.i.i
  %17 = getelementptr inbounds nuw i8, ptr %9, i64 32
  br label %18

18:                                               ; preds = %.critedge.i.i, %.lr.ph.i.i
  %.025.i.i = phi ptr [ null, %.lr.ph.i.i ], [ %.1.i.i, %.critedge.i.i ]
  %.01824.i.i = phi ptr [ %16, %.lr.ph.i.i ], [ %20, %.critedge.i.i ]
  %19 = getelementptr inbounds nuw i8, ptr %.01824.i.i, i64 24
  %20 = load ptr, ptr %19, align 8, !tbaa !29
  %21 = load i64, ptr %.01824.i.i, align 8, !tbaa !103
  %22 = icmp eq i64 %21, %5
  br i1 %22, label %23, label %.critedge.i.i

23:                                               ; preds = %18
  %24 = getelementptr inbounds nuw i8, ptr %.01824.i.i, i64 8
  %25 = load ptr, ptr %24, align 8, !tbaa !32
  %26 = icmp eq ptr %25, null
  br i1 %26, label %.critedge.i.i, label %27

27:                                               ; preds = %23
  %28 = getelementptr inbounds nuw i8, ptr %.01824.i.i, i64 20
  %29 = load i32, ptr %28, align 4, !tbaa !73
  switch i32 %29, label %31 [
    i32 1, label %_queueitem_free.exit.i.i
    i32 2, label %_queueitem_clear_data.exit.i.i.i
    i32 3, label %_queueitem_clear_data.exit.i.i.i
  ]

_queueitem_clear_data.exit.i.i.i:                 ; preds = %27, %27
  %30 = tail call i32 @_PyXIData_Release(ptr noundef nonnull %25) #6
  store ptr null, ptr %24, align 8, !tbaa !32
  br label %.critedge.i.i

31:                                               ; preds = %27
  tail call void @_Py_FatalErrorFunc(ptr noundef nonnull @__func__._queueitem_clear_interpreter, ptr noundef nonnull @.str.61) #7
  unreachable

_queueitem_free.exit.i.i:                         ; preds = %27
  store ptr null, ptr %19, align 8, !tbaa !29
  %32 = tail call i32 @_PyXIData_Release(ptr noundef nonnull %25) #6
  store ptr null, ptr %24, align 8, !tbaa !32
  tail call void @PyMem_RawFree(ptr noundef nonnull %.01824.i.i) #6
  %33 = icmp eq ptr %.025.i.i, null
  br i1 %33, label %34, label %35

34:                                               ; preds = %_queueitem_free.exit.i.i
  store ptr %20, ptr %15, align 8, !tbaa !24
  br label %37

35:                                               ; preds = %_queueitem_free.exit.i.i
  %36 = getelementptr inbounds nuw i8, ptr %.025.i.i, i64 24
  store ptr %20, ptr %36, align 8, !tbaa !29
  br label %37

37:                                               ; preds = %35, %34
  %38 = load i64, ptr %17, align 8, !tbaa !66
  %39 = add i64 %38, -1
  store i64 %39, ptr %17, align 8, !tbaa !66
  br label %.critedge.i.i

.critedge.i.i:                                    ; preds = %37, %_queueitem_clear_data.exit.i.i.i, %23, %18
  %.1.i.i = phi ptr [ %.025.i.i, %37 ], [ %.01824.i.i, %18 ], [ %.01824.i.i, %_queueitem_clear_data.exit.i.i.i ], [ %.01824.i.i, %23 ]
  %.not.i.i = icmp eq ptr %20, null
  br i1 %.not.i.i, label %_queue_clear_interpreter.exit.i, label %18, !llvm.loop !104

_queue_clear_interpreter.exit.i:                  ; preds = %.critedge.i.i, %_queue_lock.exit.i.i, %.lr.ph.i
  %40 = load ptr, ptr %10, align 8, !tbaa !35
  tail call void @PyThread_release_lock(ptr noundef %40) #6
  %.0.i = load ptr, ptr %.03.i, align 8, !tbaa !36
  %.not.i = icmp eq ptr %.0.i, null
  br i1 %.not.i, label %_queues_clear_interpreter.exit, label %.lr.ph.i, !llvm.loop !105

_queues_clear_interpreter.exit:                   ; preds = %_queue_clear_interpreter.exit.i, %4
  %41 = load ptr, ptr getelementptr inbounds nuw (i8, ptr @_globals, i64 8), align 8, !tbaa !20
  tail call void @PyThread_release_lock(ptr noundef %41) #6
  br label %42

42:                                               ; preds = %1, %_queues_clear_interpreter.exit
  ret void
}